target datalayout = "e-m:e-p270:32:32-p271:32:32-p272:64:64-i64:64-i128:128-f80:128-n8:16:32:64-S128"
target triple = "x86_64-pc-linux-gnu"

%struct.ProfileState = type { ptr, ptr, ptr, %struct.SBuf, i32, i32, i32, %struct.sigaction }
%struct.SBuf = type { ptr, ptr, ptr, %struct.MRef }
%struct.MRef = type { i64 }
%struct.sigaction = type { %union.anon, %struct.__sigset_t, i32, ptr }
%union.anon = type { ptr }
%struct.__sigset_t = type { [16 x i64] }
%struct.lua_State = type { %struct.GCRef, i8, i8, i8, i8, %struct.MRef, %struct.GCRef, ptr, ptr, %struct.MRef, %struct.MRef, %struct.GCRef, %struct.GCRef, ptr, i32 }
%struct.GCRef = type { i64 }
%struct.global_State = type { ptr, ptr, %struct.GCState, %struct.GCstr, i8, i8, i8, i8, %struct.StrInternState, i32, %struct.GCRef, %struct.SBuf, %union.TValue, %union.TValue, %struct.Node, %union.TValue, %struct.GCupval, i32, i32, ptr, ptr, ptr, i32, i32, %struct.GCRef, %struct.MRef, %struct.MRef, %struct.PRNGState, [39 x %struct.GCRef] }
%struct.GCState = type { i64, i64, i8, i8, i8, i8, i32, %struct.GCRef, %struct.MRef, %struct.GCRef, %struct.GCRef, %struct.GCRef, %struct.GCRef, i64, i64, i32, i32, %struct.MRef }
%struct.GCstr = type { %struct.GCRef, i8, i8, i8, i8, i32, i32, i32 }
%struct.StrInternState = type { ptr, i32, i32, i32, i8, i8, i8, i8, i64 }
%struct.Node = type { %union.TValue, %union.TValue, %struct.MRef }
%union.TValue = type { i64 }
%struct.GCupval = type { %struct.GCRef, i8, i8, i8, i8, %union.anon.1, %struct.MRef, i32 }
%union.anon.1 = type { %struct.anon.2 }
%struct.anon.2 = type { %struct.GCRef, %struct.GCRef }
%struct.PRNGState = type { [4 x i64] }
%struct.GG_State = type { %struct.lua_State, %struct.global_State, %struct.jit_State, [64 x i16], [243 x ptr], [57 x i32] }
%struct.jit_State = type { %struct.GCtrace, ptr, ptr, ptr, ptr, ptr, ptr, i32, i32, i32, i8, i8, %struct.IRType1, i8, %struct.FoldState, ptr, i32, i32, i32, i32, i32, i32, i32, [1 x i32], [5 x %union.TValue], [3 x %union.TValue], ptr, i32, i32, i32, i32, ptr, ptr, i32, i32, i8, ptr, i32, i32, i16, [101 x i16], [258 x i32], [15 x i32], [16 x ptr], [64 x %struct.HotPenalty], i32, [16 x %struct.BPropEntry], i32, %struct.ScEvEntry, ptr, i32, i32, i32, ptr, i32, i32, ptr, ptr, ptr, i64, i64, %union.TValue, ptr, i32, i32 }
%struct.GCtrace = type { %struct.GCRef, i8, i8, i16, i32, i32, %struct.GCRef, ptr, i32, i32, ptr, ptr, %struct.GCRef, %struct.MRef, i32, i32, ptr, i32, i16, i16, i16, i16, i16, i16, i16, i8, i8, i8, i8 }
%struct.IRType1 = type { i8 }
%struct.FoldState = type { %union.IRIns, [2 x %union.IRIns], [2 x %union.IRIns] }
%union.IRIns = type { %struct.GCRef }
%struct.HotPenalty = type { %struct.MRef, i16, i16 }
%struct.BPropEntry = type { i16, i16, i32 }
%struct.ScEvEntry = type { %struct.MRef, i16, i16, i16, i16, %struct.IRType1, i8 }
%struct.itimerval = type { %struct.timeval, %struct.timeval }
%struct.timeval = type { i64, i64 }

@profile_state = internal global %struct.ProfileState zeroinitializer, align 8

; Function Attrs: nounwind uwtable
define internal void @profile_timer_start(ptr noundef %0) #0 {
  %2 = alloca ptr, align 8
  %3 = alloca i32, align 4
  %4 = alloca %struct.itimerval, align 8
  %5 = alloca %struct.sigaction, align 8
  store ptr %0, ptr %2, align 8, !tbaa !9
  call void @llvm.lifetime.start.p0(i64 4, ptr %3) #5
  %6 = load ptr, ptr %2, align 8, !tbaa !9
  %7 = getelementptr inbounds nuw %struct.ProfileState, ptr %6, i32 0, i32 4
  %8 = load i32, ptr %7, align 8, !tbaa !60
  store i32 %8, ptr %3, align 4, !tbaa !36
  call void @llvm.lifetime.start.p0(i64 32, ptr %4) #5
  call void @llvm.lifetime.start.p0(i64 152, ptr %5) #5
  %9 = load i32, ptr %3, align 4, !tbaa !36
  %10 = sdiv i32 %9, 1000
  %11 = sext i32 %10 to i64
  %12 = getelementptr inbounds nuw %struct.itimerval, ptr %4, i32 0, i32 0
  %13 = getelementptr inbounds nuw %struct.timeval, ptr %12, i32 0, i32 0
  store i64 %11, ptr %13, align 8, !tbaa !69
  %14 = getelementptr inbounds nuw %struct.itimerval, ptr %4, i32 0, i32 1
  %15 = getelementptr inbounds nuw %struct.timeval, ptr %14, i32 0, i32 0
  store i64 %11, ptr %15, align 8, !tbaa !72
  %16 = load i32, ptr %3, align 4, !tbaa !36
  %17 = srem i32 %16, 1000
  %18 = mul nsw i32 %17, 1000
  %19 = sext i32 %18 to i64
  %20 = getelementptr inbounds nuw %struct.itimerval, ptr %4, i32 0, i32 0
  %21 = getelementptr inbounds nuw %struct.timeval, ptr %20, i32 0, i32 1
  store i64 %19, ptr %21, align 8, !tbaa !73
  %22 = getelementptr inbounds nuw %struct.itimerval, ptr %4, i32 0, i32 1
  %23 = getelementptr inbounds nuw %struct.timeval, ptr %22, i32 0, i32 1
  store i64 %19, ptr %23, align 8, !tbaa !74
  %24 = call i32 @setitimer(i32 noundef 2, ptr noundef %4, ptr noundef null) #5
  %25 = getelementptr inbounds nuw %struct.sigaction, ptr %5, i32 0, i32 2
  store i32 268435456, ptr %25, align 8, !tbaa !75
  %26 = getelementptr inbounds nuw %struct.sigaction, ptr %5, i32 0, i32 0
  store ptr @profile_signal, ptr %26, align 8, !tbaa !31
  %27 = getelementptr inbounds nuw %struct.sigaction, ptr %5, i32 0, i32 1
  %28 = call i32 @sigemptyset(ptr noundef %27) #5
  %29 = load ptr, ptr %2, align 8, !tbaa !9
  %30 = getelementptr inbounds nuw %struct.ProfileState, ptr %29, i32 0, i32 7
  %31 = call i32 @sigaction(i32 noundef 27, ptr noundef %5, ptr noundef %30) #5
  call void @llvm.lifetime.end.p0(i64 152, ptr %5) #5
  call void @llvm.lifetime.end.p0(i64 32, ptr %4) #5
  call void @llvm.lifetime.end.p0(i64 4, ptr %3) #5
  ret void
}

; Function Attrs: alwaysinline nounwind uwtable
define internal void @lj_buf_init(ptr noundef %0, ptr noundef %1) #3 {
  %3 = alloca ptr, align 8
  %4 = alloca ptr, align 8
  store ptr %0, ptr %3, align 8, !tbaa !4
  store ptr %1, ptr %4, align 8, !tbaa !63
  %5 = load ptr, ptr %3, align 8, !tbaa !4
  %6 = ptrtoint ptr %5 to i64
  %7 = load ptr, ptr %4, align 8, !tbaa !63
  %8 = getelementptr inbounds nuw %struct.SBuf, ptr %7, i32 0, i32 3
  %9 = getelementptr inbounds nuw %struct.MRef, ptr %8, i32 0, i32 0
  store i64 %6, ptr %9, align 8, !tbaa !65
  %10 = load ptr, ptr %4, align 8, !tbaa !63
  %11 = getelementptr inbounds nuw %struct.SBuf, ptr %10, i32 0, i32 2
  store ptr null, ptr %11, align 8, !tbaa !66
  %12 = load ptr, ptr %4, align 8, !tbaa !63
  %13 = getelementptr inbounds nuw %struct.SBuf, ptr %12, i32 0, i32 1
  store ptr null, ptr %13, align 8, !tbaa !67
  %14 = load ptr, ptr %4, align 8, !tbaa !63
  %15 = getelementptr inbounds nuw %struct.SBuf, ptr %14, i32 0, i32 0
  store ptr null, ptr %15, align 8, !tbaa !68
  ret void
}

; Function Attrs: nounwind uwtable
define dso_local void @luaJIT_profile_start(ptr noundef %0, ptr noundef %1, ptr noundef %2, ptr noundef %3) #0 {
  %5 = alloca ptr, align 8
  %6 = alloca ptr, align 8
  %7 = alloca ptr, align 8
  %8 = alloca ptr, align 8
  %9 = alloca ptr, align 8
  %10 = alloca i32, align 4
  %11 = alloca i32, align 4
  %12 = alloca i32, align 4
  store ptr %0, ptr %5, align 8, !tbaa !4
  store ptr %1, ptr %6, align 8, !tbaa !40
  store ptr %2, ptr %7, align 8, !tbaa !41
  store ptr %3, ptr %8, align 8, !tbaa !41
  call void @llvm.lifetime.start.p0(i64 8, ptr %9) #5
  store ptr @profile_state, ptr %9, align 8, !tbaa !9
  call void @llvm.lifetime.start.p0(i64 4, ptr %10) #5
  store i32 10, ptr %10, align 4, !tbaa !36
  br label %13

13:                                               ; preds = %63, %4
  %14 = load ptr, ptr %6, align 8, !tbaa !40
  %15 = load i8, ptr %14, align 1, !tbaa !31
  %16 = icmp ne i8 %15, 0
  br i1 %16, label %17, label %64

17:                                               ; preds = %13
  call void @llvm.lifetime.start.p0(i64 4, ptr %11) #5
  %18 = load ptr, ptr %6, align 8, !tbaa !40
  %19 = getelementptr inbounds nuw i8, ptr %18, i32 1
  store ptr %19, ptr %6, align 8, !tbaa !40
  %20 = load i8, ptr %18, align 1, !tbaa !31
  %21 = sext i8 %20 to i32
  store i32 %21, ptr %11, align 4, !tbaa !36
  %22 = load i32, ptr %11, align 4, !tbaa !36
  switch i32 %22, label %62 [
    i32 105, label %23
    i32 108, label %50
    i32 102, label %50
  ]

23:                                               ; preds = %17
  store i32 0, ptr %10, align 4, !tbaa !36
  br label %24

24:                                               ; preds = %36, %23
  %25 = load ptr, ptr %6, align 8, !tbaa !40
  %26 = load i8, ptr %25, align 1, !tbaa !31
  %27 = sext i8 %26 to i32
  %28 = icmp sge i32 %27, 48
  br i1 %28, label %29, label %34

29:                                               ; preds = %24
  %30 = load ptr, ptr %6, align 8, !tbaa !40
  %31 = load i8, ptr %30, align 1, !tbaa !31
  %32 = sext i8 %31 to i32
  %33 = icmp sle i32 %32, 57
  br label %34

34:                                               ; preds = %29, %24
  %35 = phi i1 [ false, %24 ], [ %33, %29 ]
  br i1 %35, label %36, label %45

36:                                               ; preds = %34
  %37 = load i32, ptr %10, align 4, !tbaa !36
  %38 = mul nsw i32 %37, 10
  %39 = load ptr, ptr %6, align 8, !tbaa !40
  %40 = getelementptr inbounds nuw i8, ptr %39, i32 1
  store ptr %40, ptr %6, align 8, !tbaa !40
  %41 = load i8, ptr %39, align 1, !tbaa !31
  %42 = sext i8 %41 to i32
  %43 = sub nsw i32 %42, 48
  %44 = add nsw i32 %38, %43
  store i32 %44, ptr %10, align 4, !tbaa !36
  br label %24, !llvm.loop !42

45:                                               ; preds = %34
  %46 = load i32, ptr %10, align 4, !tbaa !36
  %47 = icmp sle i32 %46, 0
  br i1 %47, label %48, label %49

48:                                               ; preds = %45
  store i32 1, ptr %10, align 4, !tbaa !36
  br label %49

49:                                               ; preds = %48, %45
  br label %63

50:                                               ; preds = %17, %17
  %51 = load i32, ptr %11, align 4, !tbaa !36
  %52 = load ptr, ptr %5, align 8, !tbaa !4
  %53 = getelementptr inbounds nuw %struct.lua_State, ptr %52, i32 0, i32 5
  %54 = getelementptr inbounds nuw %struct.MRef, ptr %53, i32 0, i32 0
  %55 = load i64, ptr %54, align 8, !tbaa !11
  %56 = inttoptr i64 %55 to ptr
  %57 = getelementptr inbounds i8, ptr %56, i64 -96
  %58 = getelementptr inbounds nuw %struct.GG_State, ptr %57, i32 0, i32 2
  %59 = getelementptr inbounds nuw %struct.jit_State, ptr %58, i32 0, i32 64
  store i32 %51, ptr %59, align 4, !tbaa !44
  %60 = load ptr, ptr %5, align 8, !tbaa !4
  %61 = call i32 @lj_trace_flushall(ptr noundef %60)
  br label %63

62:                                               ; preds = %17
  br label %63

63:                                               ; preds = %62, %50, %49
  call void @llvm.lifetime.end.p0(i64 4, ptr %11) #5
  br label %13, !llvm.loop !58

64:                                               ; preds = %13
  %65 = load ptr, ptr %9, align 8, !tbaa !9
  %66 = getelementptr inbounds nuw %struct.ProfileState, ptr %65, i32 0, i32 0
  %67 = load ptr, ptr %66, align 8, !tbaa !59
  %68 = icmp ne ptr %67, null
  br i1 %68, label %69, label %77

69:                                               ; preds = %64
  %70 = load ptr, ptr %5, align 8, !tbaa !4
  call void @luaJIT_profile_stop(ptr noundef %70)
  %71 = load ptr, ptr %9, align 8, !tbaa !9
  %72 = getelementptr inbounds nuw %struct.ProfileState, ptr %71, i32 0, i32 0
  %73 = load ptr, ptr %72, align 8, !tbaa !59
  %74 = icmp ne ptr %73, null
  br i1 %74, label %75, label %76

75:                                               ; preds = %69
  store i32 1, ptr %12, align 4
  br label %100

76:                                               ; preds = %69
  br label %77

77:                                               ; preds = %76, %64
  %78 = load ptr, ptr %5, align 8, !tbaa !4
  %79 = getelementptr inbounds nuw %struct.lua_State, ptr %78, i32 0, i32 5
  %80 = getelementptr inbounds nuw %struct.MRef, ptr %79, i32 0, i32 0
  %81 = load i64, ptr %80, align 8, !tbaa !11
  %82 = inttoptr i64 %81 to ptr
  %83 = load ptr, ptr %9, align 8, !tbaa !9
  %84 = getelementptr inbounds nuw %struct.ProfileState, ptr %83, i32 0, i32 0
  store ptr %82, ptr %84, align 8, !tbaa !59
  %85 = load i32, ptr %10, align 4, !tbaa !36
  %86 = load ptr, ptr %9, align 8, !tbaa !9
  %87 = getelementptr inbounds nuw %struct.ProfileState, ptr %86, i32 0, i32 4
  store i32 %85, ptr %87, align 8, !tbaa !60
  %88 = load ptr, ptr %7, align 8, !tbaa !41
  %89 = load ptr, ptr %9, align 8, !tbaa !9
  %90 = getelementptr inbounds nuw %struct.ProfileState, ptr %89, i32 0, i32 1
  store ptr %88, ptr %90, align 8, !tbaa !37
  %91 = load ptr, ptr %8, align 8, !tbaa !41
  %92 = load ptr, ptr %9, align 8, !tbaa !9
  %93 = getelementptr inbounds nuw %struct.ProfileState, ptr %92, i32 0, i32 2
  store ptr %91, ptr %93, align 8, !tbaa !38
  %94 = load ptr, ptr %9, align 8, !tbaa !9
  %95 = getelementptr inbounds nuw %struct.ProfileState, ptr %94, i32 0, i32 5
  store i32 0, ptr %95, align 4, !tbaa !32
  %96 = load ptr, ptr %5, align 8, !tbaa !4
  %97 = load ptr, ptr %9, align 8, !tbaa !9
  %98 = getelementptr inbounds nuw %struct.ProfileState, ptr %97, i32 0, i32 3
  call void @lj_buf_init(ptr noundef %96, ptr noundef %98)
  %99 = load ptr, ptr %9, align 8, !tbaa !9
  call void @profile_timer_start(ptr noundef %99)
  store i32 0, ptr %12, align 4
  br label %100

100:                                              ; preds = %77, %75
  call void @llvm.lifetime.end.p0(i64 4, ptr %10) #5
  call void @llvm.lifetime.end.p0(i64 8, ptr %9) #5
  %101 = load i32, ptr %12, align 4
  switch i32 %101, label %103 [
    i32 0, label %102
    i32 1, label %102
  ]

102:                                              ; preds = %100, %100
  ret void

103:                                              ; preds = %100
  unreachable
}