; Function Attrs: nounwind uwtable
define dso_local void @luaJIT_profile_start(ptr noundef %0, ptr noundef readonly captures(none) %1, ptr noundef %2, ptr noundef %3) local_unnamed_addr #0 {
  %5 = alloca %struct.itimerval, align 8
  %6 = alloca %struct.sigaction, align 8
  %7 = load i8, ptr %1, align 1, !tbaa !33
  %.not36 = icmp eq i8 %7, 0
  br i1 %.not36, label %._crit_edge, label %.lr.ph39

.lr.ph39:                                         ; preds = %4
  %8 = getelementptr inbounds nuw i8, ptr %0, i64 16
  br label %9

9:                                                ; preds = %.lr.ph39, %27
  %10 = phi i8 [ %7, %.lr.ph39 ], [ %28, %27 ]
  %.038 = phi ptr [ %1, %.lr.ph39 ], [ %.2, %27 ]
  %.02537 = phi i32 [ 10, %.lr.ph39 ], [ %.227, %27 ]
  %11 = getelementptr inbounds nuw i8, ptr %.038, i64 1
  switch i8 %10, label %27 [
    i8 105, label %.preheader
    i8 108, label %21
    i8 102, label %21
  ]

.preheader:                                       ; preds = %9
  %12 = load i8, ptr %11, align 1, !tbaa !33
  %13 = add i8 %12, -48
  %or.cond32 = icmp ult i8 %13, 10
  br i1 %or.cond32, label %.lr.ph, label %.critedge

.lr.ph:                                           ; preds = %.preheader, %.lr.ph
  %14 = phi i8 [ %19, %.lr.ph ], [ %12, %.preheader ]
  %.134 = phi ptr [ %16, %.lr.ph ], [ %11, %.preheader ]
  %.12633 = phi i32 [ %18, %.lr.ph ], [ 0, %.preheader ]
  %15 = mul nsw i32 %.12633, 10
  %16 = getelementptr inbounds nuw i8, ptr %.134, i64 1
  %narrow = add nsw i8 %14, -48
  %17 = zext nneg i8 %narrow to i32
  %18 = add nsw i32 %15, %17
  %19 = load i8, ptr %16, align 1, !tbaa !33
  %20 = add i8 %19, -48
  %or.cond = icmp ult i8 %20, 10
  br i1 %or.cond, label %.lr.ph, label %.critedge, !llvm.loop !34

.critedge:                                        ; preds = %.lr.ph, %.preheader
  %.126.lcssa = phi i32 [ 0, %.preheader ], [ %18, %.lr.ph ]
  %.1.lcssa = phi ptr [ %11, %.preheader ], [ %16, %.lr.ph ]
  %spec.store.select = tail call i32 @llvm.smax.i32(i32 %.126.lcssa, i32 1)
  br label %27

21:                                               ; preds = %9, %9
  %22 = zext nneg i8 %10 to i32
  %23 = load i64, ptr %8, align 8, !tbaa !4
  %24 = inttoptr i64 %23 to ptr
  %25 = getelementptr inbounds nuw i8, ptr %24, i64 3844
  store i32 %22, ptr %25, align 4, !tbaa !36
  %26 = tail call i32 @lj_trace_flushall(ptr noundef %0) #7
  br label %27

27:                                               ; preds = %9, %21, %.critedge
  %.227 = phi i32 [ %.02537, %9 ], [ %.02537, %21 ], [ %spec.store.select, %.critedge ]
  %.2 = phi ptr [ %11, %9 ], [ %11, %21 ], [ %.1.lcssa, %.critedge ]
  %28 = load i8, ptr %.2, align 1, !tbaa !33
  %.not = icmp eq i8 %28, 0
  br i1 %.not, label %._crit_edge, label %9, !llvm.loop !51

._crit_edge:                                      ; preds = %27, %4
  %.025.lcssa = phi i32 [ 10, %4 ], [ %.227, %27 ]
  %29 = load ptr, ptr @profile_state, align 8, !tbaa !52
  %.not30 = icmp eq ptr %29, null
  br i1 %.not30, label %32, label %30

30:                                               ; preds = %._crit_edge
  tail call void @luaJIT_profile_stop(ptr noundef %0)
  %31 = load ptr, ptr @profile_state, align 8, !tbaa !52
  %.not31 = icmp eq ptr %31, null
  br i1 %.not31, label %32, label %50

32:                                               ; preds = %30, %._crit_edge
  %33 = getelementptr inbounds nuw i8, ptr %0, i64 16
  %34 = load i64, ptr %33, align 8, !tbaa !4
  %35 = inttoptr i64 %34 to ptr
  store ptr %35, ptr @profile_state, align 8, !tbaa !52
  store i32 %.025.lcssa, ptr getelementptr inbounds nuw (i8, ptr @profile_state, i64 56), align 8, !tbaa !53
  store ptr %2, ptr getelementptr inbounds nuw (i8, ptr @profile_state, i64 8), align 8, !tbaa !30
  store ptr %3, ptr getelementptr inbounds nuw (i8, ptr @profile_state, i64 16), align 8, !tbaa !31
  store i32 0, ptr getelementptr inbounds nuw (i8, ptr @profile_state, i64 60), align 4, !tbaa !25
  %36 = ptrtoint ptr %0 to i64
  store i64 %36, ptr getelementptr inbounds nuw (i8, ptr @profile_state, i64 48), align 8, !tbaa !54
  tail call void @llvm.memset.p0.i64(ptr noundef nonnull align 8 dereferenceable(24) getelementptr inbounds nuw (i8, ptr @profile_state, i64 24), i8 0, i64 24, i1 false)
  call void @llvm.lifetime.start.p0(i64 32, ptr nonnull %5) #7
  call void @llvm.lifetime.start.p0(i64 152, ptr nonnull %6) #7
  %37 = sdiv i32 %.025.lcssa, 1000
  %38 = sext i32 %37 to i64
  store i64 %38, ptr %5, align 8, !tbaa !55
  %39 = getelementptr inbounds nuw i8, ptr %5, i64 16
  store i64 %38, ptr %39, align 8, !tbaa !58
  %40 = srem i32 %.025.lcssa, 1000
  %41 = mul nsw i32 %40, 1000
  %42 = sext i32 %41 to i64
  %43 = getelementptr inbounds nuw i8, ptr %5, i64 8
  store i64 %42, ptr %43, align 8, !tbaa !59
  %44 = getelementptr inbounds nuw i8, ptr %5, i64 24
  store i64 %42, ptr %44, align 8, !tbaa !60
  %45 = call i32 @setitimer(i32 noundef 2, ptr noundef nonnull %5, ptr noundef null) #7
  %46 = getelementptr inbounds nuw i8, ptr %6, i64 136
  store i32 268435456, ptr %46, align 8, !tbaa !61
  store ptr @profile_signal, ptr %6, align 8, !tbaa !33
  %47 = getelementptr inbounds nuw i8, ptr %6, i64 8
  %48 = call i32 @sigemptyset(ptr noundef nonnull %47) #7
  %49 = call i32 @sigaction(i32 noundef 27, ptr noundef nonnull %6, ptr noundef nonnull getelementptr inbounds nuw (i8, ptr @profile_state, i64 72)) #7
  call void @llvm.lifetime.end.p0(i64 152, ptr nonnull %6) #7
  call void @llvm.lifetime.end.p0(i64 32, ptr nonnull %5) #7
  br label %50

50:                                               ; preds = %30, %32
  ret void
}